target datalayout = "e-m:e-p270:32:32-p271:32:32-p272:64:64-i64:64-i128:128-f80:128-n8:16:32:64-S128"
target triple = "x86_64-pc-linux-gnu"

%struct.Vec_Ptr_t_ = type { i32, i32, ptr }

; Function Attrs: nounwind uwtable
define internal ptr @Vec_PtrEntry(ptr noundef %0, i32 noundef %1) #0 {
  %3 = alloca ptr, align 8
  %4 = alloca i32, align 4
  store ptr %0, ptr %3, align 8
  store i32 %1, ptr %4, align 4
  %5 = load ptr, ptr %3, align 8
  %6 = getelementptr inbounds %struct.Vec_Ptr_t_, ptr %5, i32 0, i32 2
  %7 = load ptr, ptr %6, align 8
  %8 = load i32, ptr %4, align 4
  %9 = sext i32 %8 to i64
  %10 = getelementptr inbounds ptr, ptr %7, i64 %9
  %11 = load ptr, ptr %10, align 8
  ret ptr %11
}

; Function Attrs: nounwind uwtable
define i32 @Gia_ManFindEqualFlop(ptr noundef %0, i32 noundef %1, i32 noundef %2) #0 {
  %4 = alloca i32, align 4
  %5 = alloca ptr, align 8
  %6 = alloca i32, align 4
  %7 = alloca i32, align 4
  %8 = alloca ptr, align 8
  %9 = alloca ptr, align 8
  %10 = alloca i32, align 4
  store ptr %0, ptr %5, align 8
  store i32 %1, ptr %6, align 4
  store i32 %2, ptr %7, align 4
  %11 = load ptr, ptr %5, align 8
  %12 = load i32, ptr %6, align 4
  %13 = call ptr @Vec_PtrEntry(ptr noundef %11, i32 noundef %12)
  store ptr %13, ptr %8, align 8
  store i32 0, ptr %10, align 4
  br label %14

14:                                               ; preds = %35, %3
  %15 = load i32, ptr %10, align 4
  %16 = load i32, ptr %6, align 4
  %17 = icmp slt i32 %15, %16
  br i1 %17, label %18, label %22

18:                                               ; preds = %14
  %19 = load ptr, ptr %5, align 8
  %20 = load i32, ptr %10, align 4
  %21 = call ptr @Vec_PtrEntry(ptr noundef %19, i32 noundef %20)
  store ptr %21, ptr %9, align 8
  br label %22

22:                                               ; preds = %18, %14
  %23 = phi i1 [ false, %14 ], [ true, %18 ]
  br i1 %23, label %24, label %38

24:                                               ; preds = %22
  %25 = load ptr, ptr %9, align 8
  %26 = load ptr, ptr %8, align 8
  %27 = load i32, ptr %7, align 4
  %28 = sext i32 %27 to i64
  %29 = mul i64 4, %28
  %30 = call i32 @memcmp(ptr noundef %25, ptr noundef %26, i64 noundef %29) #12
  %31 = icmp ne i32 %30, 0
  br i1 %31, label %34, label %32

32:                                               ; preds = %24
  %33 = load i32, ptr %10, align 4
  store i32 %33, ptr %4, align 4
  br label %39

34:                                               ; preds = %24
  br label %35

35:                                               ; preds = %34
  %36 = load i32, ptr %10, align 4
  %37 = add nsw i32 %36, 1
  store i32 %37, ptr %10, align 4
  br label %14, !llvm.loop !26

38:                                               ; preds = %22
  store i32 -1, ptr %4, align 4
  br label %39

39:                                               ; preds = %38, %32
  %40 = load i32, ptr %4, align 4
  ret i32 %40
}