; Function Attrs: nofree nounwind memory(read, inaccessiblemem: none) uwtable
define range(i32 -2147483648, 2147483647) i32 @Gia_ManFindEqualFlop(ptr noundef readonly captures(none) %0, i32 noundef %1, i32 noundef %2) local_unnamed_addr #6 {
  %4 = getelementptr i8, ptr %0, i64 8
  %.val12 = load ptr, ptr %4, align 8
  %5 = sext i32 %1 to i64
  %6 = getelementptr inbounds ptr, ptr %.val12, i64 %5
  %7 = load ptr, ptr %6, align 8
  %8 = icmp sgt i32 %1, 0
  br i1 %8, label %.lr.ph, label %.critedge

.lr.ph:                                           ; preds = %3
  %9 = sext i32 %2 to i64
  %10 = shl nsw i64 %9, 2
  %wide.trip.count = zext nneg i32 %1 to i64
  br label %11

11:                                               ; preds = %.lr.ph, %14
  %indvars.iv = phi i64 [ 0, %.lr.ph ], [ %indvars.iv.next, %14 ]
  %12 = getelementptr inbounds nuw ptr, ptr %.val12, i64 %indvars.iv
  %13 = load ptr, ptr %12, align 8
  %bcmp = tail call i32 @bcmp(ptr %13, ptr %7, i64 %10)
  %.not = icmp eq i32 %bcmp, 0
  br i1 %.not, label %.critedge.loopexit.split.loop.exit17, label %14

14:                                               ; preds = %11
  %indvars.iv.next = add nuw nsw i64 %indvars.iv, 1
  %exitcond.not = icmp eq i64 %indvars.iv.next, %wide.trip.count
  br i1 %exitcond.not, label %.critedge, label %11, !llvm.loop !25

.critedge.loopexit.split.loop.exit17:             ; preds = %11
  %15 = trunc nuw nsw i64 %indvars.iv to i32
  br label %.critedge

.critedge:                                        ; preds = %14, %.critedge.loopexit.split.loop.exit17, %3
  %.011 = phi i32 [ -1, %3 ], [ %15, %.critedge.loopexit.split.loop.exit17 ], [ -1, %14 ]
  ret i32 %.011
}